target datalayout = "e-m:e-p270:32:32-p271:32:32-p272:64:64-i64:64-i128:128-f80:128-n8:16:32:64-S128"
target triple = "x86_64-pc-linux-gnu"

%struct._zend_refcounted_h = type { i32, %union.anon.3 }
%union.anon.3 = type { i32 }
%struct.anon.7 = type { i8, [3 x i8], i32, ptr, ptr, ptr, i32, i32, ptr, ptr, ptr, ptr, i32 }
%struct.zend_type = type { ptr, i32 }
%struct._zend_string = type { %struct._zend_refcounted_h, i64, i64, [1 x i8] }
%struct._zend_arg_info = type { ptr, %struct.zend_type, ptr }
%struct._zend_internal_arg_info = type { ptr, %struct.zend_type, ptr }

; Function Attrs: nounwind uwtable
define ptr @get_function_arg_name(ptr noundef %0, i32 noundef %1) #0 {
  %3 = alloca ptr, align 8
  %4 = alloca ptr, align 8
  %5 = alloca i32, align 4
  store ptr %0, ptr %4, align 8
  store i32 %1, ptr %5, align 4
  %6 = load ptr, ptr %4, align 8
  %7 = icmp ne ptr %6, null
  br i1 %7, label %8, label %17

8:                                                ; preds = %2
  %9 = load i32, ptr %5, align 4
  %10 = icmp eq i32 %9, 0
  br i1 %10, label %17, label %11

11:                                               ; preds = %8
  %12 = load ptr, ptr %4, align 8
  %13 = getelementptr inbounds %struct.anon.7, ptr %12, i32 0, i32 6
  %14 = load i32, ptr %13, align 8
  %15 = load i32, ptr %5, align 4
  %16 = icmp ult i32 %14, %15
  br i1 %16, label %17, label %18

17:                                               ; preds = %11, %8, %2
  store ptr null, ptr %3, align 8
  br label %51

18:                                               ; preds = %11
  %19 = load ptr, ptr %4, align 8
  %20 = load i8, ptr %19, align 8
  %21 = zext i8 %20 to i32
  %22 = icmp eq i32 %21, 2
  br i1 %22, label %29, label %23

23:                                               ; preds = %18
  %24 = load ptr, ptr %4, align 8
  %25 = getelementptr inbounds %struct.anon.7, ptr %24, i32 0, i32 2
  %26 = load i32, ptr %25, align 4
  %27 = and i32 %26, 67108864
  %28 = icmp ne i32 %27, 0
  br i1 %28, label %29, label %41

29:                                               ; preds = %23, %18
  %30 = load ptr, ptr %4, align 8
  %31 = getelementptr inbounds %struct.anon.7, ptr %30, i32 0, i32 8
  %32 = load ptr, ptr %31, align 8
  %33 = load i32, ptr %5, align 4
  %34 = sub i32 %33, 1
  %35 = zext i32 %34 to i64
  %36 = getelementptr inbounds %struct._zend_arg_info, ptr %32, i64 %35
  %37 = getelementptr inbounds %struct._zend_arg_info, ptr %36, i32 0, i32 0
  %38 = load ptr, ptr %37, align 8
  %39 = getelementptr inbounds %struct._zend_string, ptr %38, i32 0, i32 3
  %40 = getelementptr inbounds [1 x i8], ptr %39, i64 0, i64 0
  store ptr %40, ptr %3, align 8
  br label %51

41:                                               ; preds = %23
  %42 = load ptr, ptr %4, align 8
  %43 = getelementptr inbounds %struct.anon.7, ptr %42, i32 0, i32 8
  %44 = load ptr, ptr %43, align 8
  %45 = load i32, ptr %5, align 4
  %46 = sub i32 %45, 1
  %47 = zext i32 %46 to i64
  %48 = getelementptr inbounds %struct._zend_internal_arg_info, ptr %44, i64 %47
  %49 = getelementptr inbounds %struct._zend_internal_arg_info, ptr %48, i32 0, i32 0
  %50 = load ptr, ptr %49, align 8
  store ptr %50, ptr %3, align 8
  br label %51

51:                                               ; preds = %41, %29, %17
  %52 = load ptr, ptr %3, align 8
  ret ptr %52
}