; Function Attrs: mustprogress nofree norecurse nosync nounwind willreturn memory(read, inaccessiblemem: none) uwtable
define ptr @get_function_arg_name(ptr noundef readonly %0, i32 noundef %1) local_unnamed_addr #4 {
  %3 = icmp eq ptr %0, null
  %4 = icmp eq i32 %1, 0
  %or.cond = or i1 %3, %4
  br i1 %or.cond, label %31, label %5

5:                                                ; preds = %2
  %6 = getelementptr inbounds i8, ptr %0, i64 32
  %7 = load i32, ptr %6, align 8
  %8 = icmp ult i32 %7, %1
  br i1 %8, label %31, label %9

9:                                                ; preds = %5
  %10 = load i8, ptr %0, align 8
  %11 = icmp eq i8 %10, 2
  br i1 %11, label %16, label %12

12:                                               ; preds = %9
  %13 = getelementptr inbounds i8, ptr %0, i64 4
  %14 = load i32, ptr %13, align 4
  %15 = and i32 %14, 67108864
  %.not = icmp eq i32 %15, 0
  br i1 %.not, label %24, label %16

16:                                               ; preds = %12, %9
  %17 = getelementptr inbounds i8, ptr %0, i64 40
  %18 = load ptr, ptr %17, align 8
  %19 = add i32 %1, -1
  %20 = zext i32 %19 to i64
  %21 = getelementptr inbounds %struct._zend_arg_info, ptr %18, i64 %20
  %22 = load ptr, ptr %21, align 8
  %23 = getelementptr inbounds i8, ptr %22, i64 24
  br label %31

24:                                               ; preds = %12
  %25 = getelementptr inbounds i8, ptr %0, i64 40
  %26 = load ptr, ptr %25, align 8
  %27 = add i32 %1, -1
  %28 = zext i32 %27 to i64
  %29 = getelementptr inbounds %struct._zend_internal_arg_info, ptr %26, i64 %28
  %30 = load ptr, ptr %29, align 8
  br label %31

31:                                               ; preds = %2, %5, %24, %16
  %.0 = phi ptr [ %23, %16 ], [ %30, %24 ], [ null, %5 ], [ null, %2 ]
  ret ptr %.0
}